target datalayout = "e-m:e-p270:32:32-p271:32:32-p272:64:64-i64:64-i128:128-f80:128-n8:16:32:64-S128"
target triple = "x86_64-pc-linux-gnu"

%struct.PROV_ML_DSA_CTX = type { ptr, ptr, [255 x i8], i64, [32 x i8], i64, i32, i32, i32, [256 x i8], i64, i32 }
%struct.wpacket_st = type { ptr, ptr, i64, i64, i64, ptr, i8 }

@.str = private unnamed_addr constant [60 x i8] c"../openssl/providers/implementations/signature/ml_dsa_sig.c\00", align 1
@__func__.ml_dsa_signverify_msg_init = private unnamed_addr constant [27 x i8] c"ml_dsa_signverify_msg_init\00", align 1

; Function Attrs: nounwind uwtable
define internal i32 @set_alg_id_buffer(ptr noundef %0) #0 {
  %2 = alloca ptr, align 8
  %3 = alloca i32, align 4
  %4 = alloca %struct.wpacket_st, align 8
  %5 = alloca ptr, align 8
  store ptr %0, ptr %2, align 8, !tbaa !3
  call void @llvm.lifetime.start.p0(i64 4, ptr %3) #6
  call void @llvm.lifetime.start.p0(i64 56, ptr %4) #6
  call void @llvm.lifetime.start.p0(i64 8, ptr %5) #6
  store ptr null, ptr %5, align 8, !tbaa !7
  %6 = load ptr, ptr %2, align 8, !tbaa !3
  %7 = getelementptr inbounds nuw %struct.PROV_ML_DSA_CTX, ptr %6, i32 0, i32 10
  store i64 0, ptr %7, align 8, !tbaa !28
  %8 = load ptr, ptr %2, align 8, !tbaa !3
  %9 = getelementptr inbounds nuw %struct.PROV_ML_DSA_CTX, ptr %8, i32 0, i32 9
  %10 = getelementptr inbounds [256 x i8], ptr %9, i64 0, i64 0
  %11 = call i32 @WPACKET_init_der(ptr noundef %4, ptr noundef %10, i64 noundef 256)
  store i32 %11, ptr %3, align 4, !tbaa !15
  %12 = load i32, ptr %3, align 4, !tbaa !15
  %13 = icmp ne i32 %12, 0
  br i1 %13, label %14, label %20

14:                                               ; preds = %1
  %15 = load ptr, ptr %2, align 8, !tbaa !3
  %16 = getelementptr inbounds nuw %struct.PROV_ML_DSA_CTX, ptr %15, i32 0, i32 0
  %17 = load ptr, ptr %16, align 8, !tbaa !23
  %18 = call i32 @ossl_DER_w_algorithmIdentifier_ML_DSA(ptr noundef %4, i32 noundef -1, ptr noundef %17)
  %19 = icmp ne i32 %18, 0
  br label %20

20:                                               ; preds = %14, %1
  %21 = phi i1 [ false, %1 ], [ %19, %14 ]
  %22 = zext i1 %21 to i32
  store i32 %22, ptr %3, align 4, !tbaa !15
  %23 = load i32, ptr %3, align 4, !tbaa !15
  %24 = icmp ne i32 %23, 0
  br i1 %24, label %25, label %33

25:                                               ; preds = %20
  %26 = call i32 @WPACKET_finish(ptr noundef %4)
  %27 = icmp ne i32 %26, 0
  br i1 %27, label %28, label %33

28:                                               ; preds = %25
  %29 = load ptr, ptr %2, align 8, !tbaa !3
  %30 = getelementptr inbounds nuw %struct.PROV_ML_DSA_CTX, ptr %29, i32 0, i32 10
  %31 = call i32 @WPACKET_get_total_written(ptr noundef %4, ptr noundef %30)
  %32 = call ptr @WPACKET_get_curr(ptr noundef %4)
  store ptr %32, ptr %5, align 8, !tbaa !7
  br label %33

33:                                               ; preds = %28, %25, %20
  call void @WPACKET_cleanup(ptr noundef %4)
  %34 = load ptr, ptr %5, align 8, !tbaa !7
  %35 = icmp ne ptr %34, null
  br i1 %35, label %36, label %49

36:                                               ; preds = %33
  %37 = load ptr, ptr %2, align 8, !tbaa !3
  %38 = getelementptr inbounds nuw %struct.PROV_ML_DSA_CTX, ptr %37, i32 0, i32 10
  %39 = load i64, ptr %38, align 8, !tbaa !28
  %40 = icmp ne i64 %39, 0
  br i1 %40, label %41, label %49

41:                                               ; preds = %36
  %42 = load ptr, ptr %2, align 8, !tbaa !3
  %43 = getelementptr inbounds nuw %struct.PROV_ML_DSA_CTX, ptr %42, i32 0, i32 9
  %44 = getelementptr inbounds [256 x i8], ptr %43, i64 0, i64 0
  %45 = load ptr, ptr %5, align 8, !tbaa !7
  %46 = load ptr, ptr %2, align 8, !tbaa !3
  %47 = getelementptr inbounds nuw %struct.PROV_ML_DSA_CTX, ptr %46, i32 0, i32 10
  %48 = load i64, ptr %47, align 8, !tbaa !28
  call void @llvm.memmove.p0.p0.i64(ptr align 4 %44, ptr align 1 %45, i64 %48, i1 false)
  br label %49

49:                                               ; preds = %41, %36, %33
  call void @llvm.lifetime.end.p0(i64 8, ptr %5) #6
  call void @llvm.lifetime.end.p0(i64 56, ptr %4) #6
  call void @llvm.lifetime.end.p0(i64 4, ptr %3) #6
  ret i32 1
}

; Function Attrs: nounwind uwtable
define internal i32 @ml_dsa_signverify_msg_init(ptr noundef %0, ptr noundef %1, ptr noundef %2, i32 noundef %3, ptr noundef %4) #0 {
  %6 = alloca i32, align 4
  %7 = alloca ptr, align 8
  %8 = alloca ptr, align 8
  %9 = alloca ptr, align 8
  %10 = alloca i32, align 4
  %11 = alloca ptr, align 8
  %12 = alloca ptr, align 8
  %13 = alloca ptr, align 8
  %14 = alloca i32, align 4
  store ptr %0, ptr %7, align 8, !tbaa !3
  store ptr %1, ptr %8, align 8, !tbaa !3
  store ptr %2, ptr %9, align 8, !tbaa !9
  store i32 %3, ptr %10, align 4, !tbaa !15
  store ptr %4, ptr %11, align 8, !tbaa !7
  call void @llvm.lifetime.start.p0(i64 8, ptr %12) #6
  %15 = load ptr, ptr %7, align 8, !tbaa !3
  store ptr %15, ptr %12, align 8, !tbaa !3
  call void @llvm.lifetime.start.p0(i64 8, ptr %13) #6
  %16 = load ptr, ptr %8, align 8, !tbaa !3
  store ptr %16, ptr %13, align 8, !tbaa !30
  %17 = call i32 @ossl_prov_is_running()
  %18 = icmp ne i32 %17, 0
  br i1 %18, label %19, label %22

19:                                               ; preds = %5
  %20 = load ptr, ptr %12, align 8, !tbaa !3
  %21 = icmp eq ptr %20, null
  br i1 %21, label %22, label %23

22:                                               ; preds = %19, %5
  store i32 0, ptr %6, align 4
  store i32 1, ptr %14, align 4
  br label %57

23:                                               ; preds = %19
  %24 = load ptr, ptr %8, align 8, !tbaa !3
  %25 = icmp eq ptr %24, null
  br i1 %25, label %26, label %32

26:                                               ; preds = %23
  %27 = load ptr, ptr %12, align 8, !tbaa !3
  %28 = getelementptr inbounds nuw %struct.PROV_ML_DSA_CTX, ptr %27, i32 0, i32 0
  %29 = load ptr, ptr %28, align 8, !tbaa !23
  %30 = icmp eq ptr %29, null
  br i1 %30, label %31, label %32

31:                                               ; preds = %26
  call void @ERR_new()
  call void @ERR_set_debug(ptr noundef @.str, i32 noundef 136, ptr noundef @__func__.ml_dsa_signverify_msg_init)
  call void (i32, i32, ptr, ...) @ERR_set_error(i32 noundef 57, i32 noundef 114, ptr noundef null)
  store i32 0, ptr %6, align 4
  store i32 1, ptr %14, align 4
  br label %57

32:                                               ; preds = %26, %23
  %33 = load ptr, ptr %13, align 8, !tbaa !30
  %34 = icmp ne ptr %33, null
  br i1 %34, label %35, label %39

35:                                               ; preds = %32
  %36 = load ptr, ptr %8, align 8, !tbaa !3
  %37 = load ptr, ptr %12, align 8, !tbaa !3
  %38 = getelementptr inbounds nuw %struct.PROV_ML_DSA_CTX, ptr %37, i32 0, i32 0
  store ptr %36, ptr %38, align 8, !tbaa !23
  br label %39

39:                                               ; preds = %35, %32
  %40 = load ptr, ptr %12, align 8, !tbaa !3
  %41 = getelementptr inbounds nuw %struct.PROV_ML_DSA_CTX, ptr %40, i32 0, i32 0
  %42 = load ptr, ptr %41, align 8, !tbaa !23
  %43 = load ptr, ptr %12, align 8, !tbaa !3
  %44 = getelementptr inbounds nuw %struct.PROV_ML_DSA_CTX, ptr %43, i32 0, i32 8
  %45 = load i32, ptr %44, align 8, !tbaa !29
  %46 = call i32 @ossl_ml_dsa_key_matches(ptr noundef %42, i32 noundef %45)
  %47 = icmp ne i32 %46, 0
  br i1 %47, label %49, label %48

48:                                               ; preds = %39
  store i32 0, ptr %6, align 4
  store i32 1, ptr %14, align 4
  br label %57

49:                                               ; preds = %39
  %50 = load ptr, ptr %12, align 8, !tbaa !3
  %51 = call i32 @set_alg_id_buffer(ptr noundef %50)
  %52 = load ptr, ptr %12, align 8, !tbaa !3
  %53 = getelementptr inbounds nuw %struct.PROV_ML_DSA_CTX, ptr %52, i32 0, i32 11
  store i32 0, ptr %53, align 8, !tbaa !24
  %54 = load ptr, ptr %12, align 8, !tbaa !3
  %55 = load ptr, ptr %9, align 8, !tbaa !9
  %56 = call i32 @ml_dsa_set_ctx_params(ptr noundef %54, ptr noundef %55)
  store i32 %56, ptr %6, align 4
  store i32 1, ptr %14, align 4
  br label %57

57:                                               ; preds = %49, %48, %31, %22
  call void @llvm.lifetime.end.p0(i64 8, ptr %13) #6
  call void @llvm.lifetime.end.p0(i64 8, ptr %12) #6
  %58 = load i32, ptr %6, align 4
  ret i32 %58
}