; Function Attrs: nounwind uwtable
define internal fastcc range(i32 0, 2) i32 @ml_dsa_signverify_msg_init(ptr noundef %0, ptr noundef %1, ptr noundef %2) unnamed_addr #0 {
  %4 = alloca %struct.wpacket_st, align 8
  %5 = tail call i32 @ossl_prov_is_running() #6
  %6 = icmp eq i32 %5, 0
  %7 = icmp eq ptr %0, null
  %or.cond = or i1 %7, %6
  br i1 %or.cond, label %35, label %8

8:                                                ; preds = %3
  %cond = icmp eq ptr %1, null
  br i1 %cond, label %9, label %13

9:                                                ; preds = %8
  %10 = load ptr, ptr %0, align 8, !tbaa !16
  %11 = icmp eq ptr %10, null
  br i1 %11, label %12, label %14

12:                                               ; preds = %9
  tail call void @ERR_new() #6
  tail call void @ERR_set_debug(ptr noundef nonnull @.str, i32 noundef 136, ptr noundef nonnull @__func__.ml_dsa_signverify_msg_init) #6
  tail call void (i32, i32, ptr, ...) @ERR_set_error(i32 noundef 57, i32 noundef 114, ptr noundef null) #6
  br label %35

13:                                               ; preds = %8
  store ptr %1, ptr %0, align 8, !tbaa !16
  br label %14

14:                                               ; preds = %9, %13
  %15 = phi ptr [ %10, %9 ], [ %1, %13 ]
  %16 = getelementptr inbounds nuw i8, ptr %0, i64 328
  %17 = load i32, ptr %16, align 8, !tbaa !13
  %18 = tail call i32 @ossl_ml_dsa_key_matches(ptr noundef nonnull %15, i32 noundef %17) #6
  %.not17 = icmp eq i32 %18, 0
  br i1 %.not17, label %35, label %19

19:                                               ; preds = %14
  call void @llvm.lifetime.start.p0(i64 56, ptr nonnull %4) #6
  %20 = getelementptr inbounds nuw i8, ptr %0, i64 592
  store i64 0, ptr %20, align 8, !tbaa !24
  %21 = getelementptr inbounds nuw i8, ptr %0, i64 332
  %22 = call i32 @WPACKET_init_der(ptr noundef nonnull %4, ptr noundef nonnull %21, i64 noundef 256) #6
  %.not.i = icmp eq i32 %22, 0
  br i1 %.not.i, label %.critedge.thread.i, label %23

23:                                               ; preds = %19
  %24 = load ptr, ptr %0, align 8, !tbaa !16
  %25 = call i32 @ossl_DER_w_algorithmIdentifier_ML_DSA(ptr noundef nonnull %4, i32 noundef -1, ptr noundef %24) #6
  %.not16.i = icmp eq i32 %25, 0
  br i1 %.not16.i, label %.critedge.thread.i, label %26

26:                                               ; preds = %23
  %27 = call i32 @WPACKET_finish(ptr noundef nonnull %4) #6
  %.not11.i = icmp eq i32 %27, 0
  br i1 %.not11.i, label %.critedge.thread.i, label %.critedge.i

.critedge.thread.i:                               ; preds = %26, %23, %19
  call void @WPACKET_cleanup(ptr noundef nonnull %4) #6
  br label %set_alg_id_buffer.exit

.critedge.i:                                      ; preds = %26
  %28 = call i32 @WPACKET_get_total_written(ptr noundef nonnull %4, ptr noundef nonnull %20) #6
  %29 = call ptr @WPACKET_get_curr(ptr noundef nonnull %4) #6
  call void @WPACKET_cleanup(ptr noundef nonnull %4) #6
  %.not12.i = icmp eq ptr %29, null
  br i1 %.not12.i, label %set_alg_id_buffer.exit, label %30

30:                                               ; preds = %.critedge.i
  %31 = load i64, ptr %20, align 8, !tbaa !24
  %.not13.i = icmp eq i64 %31, 0
  br i1 %.not13.i, label %set_alg_id_buffer.exit, label %32

32:                                               ; preds = %30
  call void @llvm.memmove.p0.p0.i64(ptr nonnull align 4 %21, ptr nonnull align 1 %29, i64 %31, i1 false)
  br label %set_alg_id_buffer.exit

set_alg_id_buffer.exit:                           ; preds = %.critedge.thread.i, %.critedge.i, %30, %32
  call void @llvm.lifetime.end.p0(i64 56, ptr nonnull %4) #6
  %33 = getelementptr inbounds nuw i8, ptr %0, i64 600
  store i32 0, ptr %33, align 8, !tbaa !17
  %34 = call i32 @ml_dsa_set_ctx_params(ptr noundef nonnull %0, ptr noundef %2)
  br label %35

35:                                               ; preds = %14, %3, %set_alg_id_buffer.exit, %12
  %.0 = phi i32 [ 0, %12 ], [ %34, %set_alg_id_buffer.exit ], [ 0, %3 ], [ 0, %14 ]
  ret i32 %.0
}